target datalayout = "e-m:e-p270:32:32-p271:32:32-p272:64:64-i64:64-i128:128-f80:128-n8:16:32:64-S128"
target triple = "x86_64-pc-linux-gnu"

%"class.cv::Mat" = type { i32, i32, i32, i32, ptr, ptr, ptr, ptr, ptr, ptr, %"struct.cv::MatSize", %"struct.cv::MatStep" }
%"struct.cv::MatSize" = type { ptr }
%"struct.cv::MatStep" = type { ptr, [2 x i64] }
%"class.cv::_OutputArray" = type { %"class.cv::_InputArray" }
%"class.cv::_InputArray" = type { i32, ptr, %"class.cv::Size_" }
%"class.cv::Size_" = type { i32, i32 }
%"class.cv::Scalar_" = type { %"class.cv::Vec" }
%"class.cv::Vec" = type { %"class.cv::Matx" }
%"class.cv::Matx" = type { [4 x double] }
%"class.cv::MatExpr" = type { ptr, i32, %"class.cv::Mat", %"class.cv::Mat", %"class.cv::Mat", double, double, %"class.cv::Scalar_" }

; Function Attrs: inlinehint mustprogress nounwind uwtable
define linkonce_odr hidden void @_ZN2cv5Size_IiEC2Ev(ptr noundef nonnull align 4 dereferenceable(8) %0) unnamed_addr #4 comdat align 2 {
  %2 = alloca ptr, align 8
  store ptr %0, ptr %2, align 8, !tbaa !48
  %3 = load ptr, ptr %2, align 8
  %4 = getelementptr inbounds nuw %"class.cv::Size_", ptr %3, i32 0, i32 0
  store i32 0, ptr %4, align 4, !tbaa !23
  %5 = getelementptr inbounds nuw %"class.cv::Size_", ptr %3, i32 0, i32 1
  store i32 0, ptr %5, align 4, !tbaa !25
  ret void
}

; Function Attrs: inlinehint mustprogress nounwind uwtable
define linkonce_odr hidden void @_ZN2cv11_InputArray4initEiPKv(ptr noundef nonnull align 8 dereferenceable(24) %0, i32 noundef %1, ptr noundef %2) #4 comdat align 2 {
  %4 = alloca ptr, align 8
  %5 = alloca i32, align 4
  %6 = alloca ptr, align 8
  store ptr %0, ptr %4, align 8, !tbaa !78
  store i32 %1, ptr %5, align 4, !tbaa !10
  store ptr %2, ptr %6, align 8, !tbaa !104
  %7 = load ptr, ptr %4, align 8
  %8 = load i32, ptr %5, align 4, !tbaa !10
  %9 = getelementptr inbounds nuw %"class.cv::_InputArray", ptr %7, i32 0, i32 0
  store i32 %8, ptr %9, align 8, !tbaa !116
  %10 = load ptr, ptr %6, align 8, !tbaa !104
  %11 = getelementptr inbounds nuw %"class.cv::_InputArray", ptr %7, i32 0, i32 1
  store ptr %10, ptr %11, align 8, !tbaa !87
  ret void
}

; Function Attrs: inlinehint mustprogress uwtable
define linkonce_odr hidden void @_ZN2cv11_InputArrayC2Ev(ptr noundef nonnull align 8 dereferenceable(24) %0) unnamed_addr #6 comdat align 2 {
  %2 = alloca ptr, align 8
  store ptr %0, ptr %2, align 8, !tbaa !78
  %3 = load ptr, ptr %2, align 8
  %4 = getelementptr inbounds nuw %"class.cv::_InputArray", ptr %3, i32 0, i32 2
  call void @_ZN2cv5Size_IiEC2Ev(ptr noundef nonnull align 4 dereferenceable(8) %4)
  call void @_ZN2cv11_InputArray4initEiPKv(ptr noundef nonnull align 8 dereferenceable(24) %3, i32 noundef 0, ptr noundef null)
  ret void
}

; Function Attrs: inlinehint mustprogress nounwind uwtable
define linkonce_odr hidden void @_ZN2cv11_InputArrayD2Ev(ptr noundef nonnull align 8 dereferenceable(24) %0) unnamed_addr #4 comdat align 2 {
  %2 = alloca ptr, align 8
  store ptr %0, ptr %2, align 8, !tbaa !78
  ret void
}

; Function Attrs: inlinehint mustprogress uwtable
define linkonce_odr hidden void @_ZN2cv12_OutputArrayC2ERNS_3MatE(ptr noundef nonnull align 8 dereferenceable(24) %0, ptr noundef nonnull align 8 dereferenceable(96) %1) unnamed_addr #6 comdat align 2 personality ptr @__gxx_personality_v0 {
  %3 = alloca ptr, align 8
  %4 = alloca ptr, align 8
  %5 = alloca ptr, align 8
  %6 = alloca i32, align 4
  store ptr %0, ptr %3, align 8, !tbaa !46
  store ptr %1, ptr %4, align 8, !tbaa !3
  %7 = load ptr, ptr %3, align 8
  call void @_ZN2cv11_InputArrayC2Ev(ptr noundef nonnull align 8 dereferenceable(24) %7)
  %8 = load ptr, ptr %4, align 8, !tbaa !3
  invoke void @_ZN2cv11_InputArray4initEiPKv(ptr noundef nonnull align 8 dereferenceable(24) %7, i32 noundef 33619968, ptr noundef %8)
          to label %9 unwind label %10

9:                                                ; preds = %2
  ret void

10:                                               ; preds = %2
  %11 = landingpad { ptr, i32 }
          cleanup
  %12 = extractvalue { ptr, i32 } %11, 0
  store ptr %12, ptr %5, align 8
  %13 = extractvalue { ptr, i32 } %11, 1
  store i32 %13, ptr %6, align 4
  call void @_ZN2cv11_InputArrayD2Ev(ptr noundef nonnull align 8 dereferenceable(24) %7) #20
  br label %14

14:                                               ; preds = %10
  %15 = load ptr, ptr %5, align 8
  %16 = load i32, ptr %6, align 4
  %17 = insertvalue { ptr, i32 } poison, ptr %15, 0
  %18 = insertvalue { ptr, i32 } %17, i32 %16, 1
  resume { ptr, i32 } %18
}

; Function Attrs: inlinehint mustprogress nounwind uwtable
define linkonce_odr hidden noundef nonnull align 8 dereferenceable(8) ptr @_ZN2cv7MatStepixEi(ptr noundef nonnull align 8 dereferenceable(24) %0, i32 noundef %1) #4 comdat align 2 {
  %3 = alloca ptr, align 8
  %4 = alloca i32, align 4
  store ptr %0, ptr %3, align 8, !tbaa !72
  store i32 %1, ptr %4, align 4, !tbaa !10
  %5 = load ptr, ptr %3, align 8
  %6 = getelementptr inbounds nuw %"struct.cv::MatStep", ptr %5, i32 0, i32 0
  %7 = load ptr, ptr %6, align 8, !tbaa !167
  %8 = load i32, ptr %4, align 4, !tbaa !10
  %9 = sext i32 %8 to i64
  %10 = getelementptr inbounds i64, ptr %7, i64 %9
  ret ptr %10
}

; Function Attrs: inlinehint mustprogress nounwind uwtable
define linkonce_odr hidden void @_ZN2cv7MatStepC2Em(ptr noundef nonnull align 8 dereferenceable(24) %0, i64 noundef %1) unnamed_addr #4 comdat align 2 {
  %3 = alloca ptr, align 8
  %4 = alloca i64, align 8
  store ptr %0, ptr %3, align 8, !tbaa !72
  store i64 %1, ptr %4, align 8, !tbaa !51
  %5 = load ptr, ptr %3, align 8
  %6 = getelementptr inbounds nuw %"struct.cv::MatStep", ptr %5, i32 0, i32 1
  %7 = getelementptr inbounds [2 x i64], ptr %6, i64 0, i64 0
  %8 = getelementptr inbounds nuw %"struct.cv::MatStep", ptr %5, i32 0, i32 0
  store ptr %7, ptr %8, align 8, !tbaa !167
  %9 = load i64, ptr %4, align 8, !tbaa !51
  %10 = getelementptr inbounds nuw %"struct.cv::MatStep", ptr %5, i32 0, i32 0
  %11 = load ptr, ptr %10, align 8, !tbaa !167
  %12 = getelementptr inbounds i64, ptr %11, i64 0
  store i64 %9, ptr %12, align 8, !tbaa !51
  %13 = getelementptr inbounds nuw %"struct.cv::MatStep", ptr %5, i32 0, i32 0
  %14 = load ptr, ptr %13, align 8, !tbaa !167
  %15 = getelementptr inbounds i64, ptr %14, i64 1
  store i64 0, ptr %15, align 8, !tbaa !51
  ret void
}

; Function Attrs: inlinehint mustprogress nounwind uwtable
define linkonce_odr hidden void @_ZN2cv7MatSizeC2EPi(ptr noundef nonnull align 8 dereferenceable(8) %0, ptr noundef %1) unnamed_addr #4 comdat align 2 {
  %3 = alloca ptr, align 8
  %4 = alloca ptr, align 8
  store ptr %0, ptr %3, align 8, !tbaa !62
  store ptr %1, ptr %4, align 8, !tbaa !45
  %5 = load ptr, ptr %3, align 8
  %6 = getelementptr inbounds nuw %"struct.cv::MatSize", ptr %5, i32 0, i32 0
  %7 = load ptr, ptr %4, align 8, !tbaa !45
  store ptr %7, ptr %6, align 8, !tbaa !64
  ret void
}

; Function Attrs: inlinehint mustprogress uwtable
define linkonce_odr hidden void @_ZN2cv3MatC2IdLi4ELi1EEERKNS_4MatxIT_XT0_EXT1_EEEb(ptr noundef nonnull align 8 dereferenceable(96) %0, ptr noundef nonnull align 8 dereferenceable(32) %1, i1 noundef zeroext %2) unnamed_addr #6 comdat align 2 personality ptr @__gxx_personality_v0 {
  %4 = alloca ptr, align 8
  %5 = alloca ptr, align 8
  %6 = alloca i8, align 1
  %7 = alloca %"class.cv::Mat", align 8
  %8 = alloca %"class.cv::_OutputArray", align 8
  %9 = alloca ptr, align 8
  %10 = alloca i32, align 4
  store ptr %0, ptr %4, align 8, !tbaa !3
  store ptr %1, ptr %5, align 8, !tbaa !147
  %11 = zext i1 %2 to i8
  store i8 %11, ptr %6, align 1, !tbaa !83
  %12 = load ptr, ptr %4, align 8
  %13 = getelementptr inbounds nuw %"class.cv::Mat", ptr %12, i32 0, i32 0
  store i32 1124024326, ptr %13, align 8, !tbaa !39
  %14 = getelementptr inbounds nuw %"class.cv::Mat", ptr %12, i32 0, i32 1
  store i32 2, ptr %14, align 4, !tbaa !12
  %15 = getelementptr inbounds nuw %"class.cv::Mat", ptr %12, i32 0, i32 2
  store i32 4, ptr %15, align 8, !tbaa !21
  %16 = getelementptr inbounds nuw %"class.cv::Mat", ptr %12, i32 0, i32 3
  store i32 1, ptr %16, align 4, !tbaa !22
  %17 = getelementptr inbounds nuw %"class.cv::Mat", ptr %12, i32 0, i32 4
  store ptr null, ptr %17, align 8, !tbaa !27
  %18 = getelementptr inbounds nuw %"class.cv::Mat", ptr %12, i32 0, i32 5
  store ptr null, ptr %18, align 8, !tbaa !162
  %19 = getelementptr inbounds nuw %"class.cv::Mat", ptr %12, i32 0, i32 6
  store ptr null, ptr %19, align 8, !tbaa !163
  %20 = getelementptr inbounds nuw %"class.cv::Mat", ptr %12, i32 0, i32 7
  store ptr null, ptr %20, align 8, !tbaa !164
  %21 = getelementptr inbounds nuw %"class.cv::Mat", ptr %12, i32 0, i32 8
  store ptr null, ptr %21, align 8, !tbaa !165
  %22 = getelementptr inbounds nuw %"class.cv::Mat", ptr %12, i32 0, i32 9
  store ptr null, ptr %22, align 8, !tbaa !166
  %23 = getelementptr inbounds nuw %"class.cv::Mat", ptr %12, i32 0, i32 10
  %24 = getelementptr inbounds nuw %"class.cv::Mat", ptr %12, i32 0, i32 2
  call void @_ZN2cv7MatSizeC2EPi(ptr noundef nonnull align 8 dereferenceable(8) %23, ptr noundef %24) #20
  %25 = getelementptr inbounds nuw %"class.cv::Mat", ptr %12, i32 0, i32 11
  call void @_ZN2cv7MatStepC2Em(ptr noundef nonnull align 8 dereferenceable(24) %25, i64 noundef 0) #20
  %26 = load i8, ptr %6, align 1, !tbaa !83, !range !85, !noundef !86
  %27 = trunc i8 %26 to i1
  br i1 %27, label %54, label %28

28:                                               ; preds = %3
  %29 = getelementptr inbounds nuw %"class.cv::Mat", ptr %12, i32 0, i32 3
  %30 = load i32, ptr %29, align 4, !tbaa !22
  %31 = sext i32 %30 to i64
  %32 = mul i64 %31, 8
  %33 = getelementptr inbounds nuw %"class.cv::Mat", ptr %12, i32 0, i32 11
  %34 = call noundef nonnull align 8 dereferenceable(8) ptr @_ZN2cv7MatStepixEi(ptr noundef nonnull align 8 dereferenceable(24) %33, i32 noundef 0) #20
  store i64 %32, ptr %34, align 8, !tbaa !51
  %35 = getelementptr inbounds nuw %"class.cv::Mat", ptr %12, i32 0, i32 11
  %36 = call noundef nonnull align 8 dereferenceable(8) ptr @_ZN2cv7MatStepixEi(ptr noundef nonnull align 8 dereferenceable(24) %35, i32 noundef 1) #20
  store i64 8, ptr %36, align 8, !tbaa !51
  %37 = load ptr, ptr %5, align 8, !tbaa !147
  %38 = getelementptr inbounds nuw %"class.cv::Matx", ptr %37, i32 0, i32 0
  %39 = getelementptr inbounds [4 x double], ptr %38, i64 0, i64 0
  %40 = getelementptr inbounds nuw %"class.cv::Mat", ptr %12, i32 0, i32 4
  store ptr %39, ptr %40, align 8, !tbaa !27
  %41 = getelementptr inbounds nuw %"class.cv::Mat", ptr %12, i32 0, i32 5
  store ptr %39, ptr %41, align 8, !tbaa !162
  %42 = getelementptr inbounds nuw %"class.cv::Mat", ptr %12, i32 0, i32 5
  %43 = load ptr, ptr %42, align 8, !tbaa !162
  %44 = getelementptr inbounds nuw %"class.cv::Mat", ptr %12, i32 0, i32 2
  %45 = load i32, ptr %44, align 8, !tbaa !21
  %46 = sext i32 %45 to i64
  %47 = getelementptr inbounds nuw %"class.cv::Mat", ptr %12, i32 0, i32 11
  %48 = call noundef nonnull align 8 dereferenceable(8) ptr @_ZN2cv7MatStepixEi(ptr noundef nonnull align 8 dereferenceable(24) %47, i32 noundef 0) #20
  %49 = load i64, ptr %48, align 8, !tbaa !51
  %50 = mul i64 %46, %49
  %51 = getelementptr inbounds nuw i8, ptr %43, i64 %50
  %52 = getelementptr inbounds nuw %"class.cv::Mat", ptr %12, i32 0, i32 6
  store ptr %51, ptr %52, align 8, !tbaa !163
  %53 = getelementptr inbounds nuw %"class.cv::Mat", ptr %12, i32 0, i32 7
  store ptr %51, ptr %53, align 8, !tbaa !164
  br label %69

54:                                               ; preds = %3
  call void @llvm.lifetime.start.p0(i64 96, ptr %7) #20
  %55 = load ptr, ptr %5, align 8, !tbaa !147
  %56 = getelementptr inbounds nuw %"class.cv::Matx", ptr %55, i32 0, i32 0
  %57 = getelementptr inbounds [4 x double], ptr %56, i64 0, i64 0
  call void @_ZN2cv3MatC1EiiiPvm(ptr noundef nonnull align 8 dereferenceable(96) %7, i32 noundef 4, i32 noundef 1, i32 noundef 6, ptr noundef %57, i64 noundef 0)
  call void @llvm.lifetime.start.p0(i64 24, ptr %8) #20
  invoke void @_ZN2cv12_OutputArrayC2ERNS_3MatE(ptr noundef nonnull align 8 dereferenceable(24) %8, ptr noundef nonnull align 8 dereferenceable(96) %12)
          to label %58 unwind label %60

58:                                               ; preds = %54
  invoke void @_ZNK2cv3Mat6copyToERKNS_12_OutputArrayE(ptr noundef nonnull align 8 dereferenceable(96) %7, ptr noundef nonnull align 8 dereferenceable(24) %8)
          to label %59 unwind label %64

59:                                               ; preds = %58
  call void @_ZN2cv11_InputArrayD2Ev(ptr noundef nonnull align 8 dereferenceable(24) %8) #20
  call void @llvm.lifetime.end.p0(i64 24, ptr %8) #20
  call void @_ZN2cv3MatD1Ev(ptr noundef nonnull align 8 dereferenceable(96) %7) #20
  call void @llvm.lifetime.end.p0(i64 96, ptr %7) #20
  br label %69

60:                                               ; preds = %54
  %61 = landingpad { ptr, i32 }
          cleanup
  %62 = extractvalue { ptr, i32 } %61, 0
  store ptr %62, ptr %9, align 8
  %63 = extractvalue { ptr, i32 } %61, 1
  store i32 %63, ptr %10, align 4
  br label %68

64:                                               ; preds = %58
  %65 = landingpad { ptr, i32 }
          cleanup
  %66 = extractvalue { ptr, i32 } %65, 0
  store ptr %66, ptr %9, align 8
  %67 = extractvalue { ptr, i32 } %65, 1
  store i32 %67, ptr %10, align 4
  call void @_ZN2cv11_InputArrayD2Ev(ptr noundef nonnull align 8 dereferenceable(24) %8) #20
  br label %68

68:                                               ; preds = %64, %60
  call void @llvm.lifetime.end.p0(i64 24, ptr %8) #20
  call void @_ZN2cv3MatD1Ev(ptr noundef nonnull align 8 dereferenceable(96) %7) #20
  call void @llvm.lifetime.end.p0(i64 96, ptr %7) #20
  br label %70

69:                                               ; preds = %59, %28
  ret void

70:                                               ; preds = %68
  %71 = load ptr, ptr %9, align 8
  %72 = load i32, ptr %10, align 4
  %73 = insertvalue { ptr, i32 } poison, ptr %71, 0
  %74 = insertvalue { ptr, i32 } %73, i32 %72, 1
  resume { ptr, i32 } %74
}

; Function Attrs: inlinehint mustprogress uwtable
define internal void @_ZN2cvmiIdLi4ELi1EEENS_7MatExprERKNS_3MatERKNS_4MatxIT_XT0_EXT1_EEE(ptr dead_on_unwind noalias writable sret(%"class.cv::MatExpr") align 8 %0, ptr noundef nonnull align 8 dereferenceable(96) %1, ptr noundef nonnull align 8 dereferenceable(32) %2) #6 personality ptr @__gxx_personality_v0 {
  %4 = alloca ptr, align 8
  %5 = alloca ptr, align 8
  %6 = alloca ptr, align 8
  %7 = alloca %"class.cv::Mat", align 8
  %8 = alloca ptr, align 8
  %9 = alloca i32, align 4
  store ptr %0, ptr %4, align 8
  store ptr %1, ptr %5, align 8, !tbaa !3
  store ptr %2, ptr %6, align 8, !tbaa !147
  %10 = load ptr, ptr %5, align 8, !tbaa !3
  call void @llvm.lifetime.start.p0(i64 96, ptr %7) #20
  %11 = load ptr, ptr %6, align 8, !tbaa !147
  call void @_ZN2cv3MatC2IdLi4ELi1EEERKNS_4MatxIT_XT0_EXT1_EEEb(ptr noundef nonnull align 8 dereferenceable(96) %7, ptr noundef nonnull align 8 dereferenceable(32) %11, i1 noundef zeroext true)
  invoke void @_ZN2cvmiERKNS_3MatES2_(ptr dead_on_unwind writable sret(%"class.cv::MatExpr") align 8 %0, ptr noundef nonnull align 8 dereferenceable(96) %10, ptr noundef nonnull align 8 dereferenceable(96) %7)
          to label %12 unwind label %13

12:                                               ; preds = %3
  call void @_ZN2cv3MatD1Ev(ptr noundef nonnull align 8 dereferenceable(96) %7) #20
  call void @llvm.lifetime.end.p0(i64 96, ptr %7) #20
  ret void

13:                                               ; preds = %3
  %14 = landingpad { ptr, i32 }
          cleanup
  %15 = extractvalue { ptr, i32 } %14, 0
  store ptr %15, ptr %8, align 8
  %16 = extractvalue { ptr, i32 } %14, 1
  store i32 %16, ptr %9, align 4
  call void @_ZN2cv3MatD1Ev(ptr noundef nonnull align 8 dereferenceable(96) %7) #20
  call void @llvm.lifetime.end.p0(i64 96, ptr %7) #20
  br label %17

17:                                               ; preds = %13
  %18 = load ptr, ptr %8, align 8
  %19 = load i32, ptr %9, align 4
  %20 = insertvalue { ptr, i32 } poison, ptr %18, 0
  %21 = insertvalue { ptr, i32 } %20, i32 %19, 1
  resume { ptr, i32 } %21
}