; Function Attrs: inlinehint mustprogress uwtable
define internal fastcc void @_ZN2cvmiIdLi4ELi1EEENS_7MatExprERKNS_3MatERKNS_4MatxIT_XT0_EXT1_EEE(ptr dead_on_unwind noalias nonnull writable align 8 %0, ptr noundef nonnull align 8 dereferenceable(96) %1, ptr noundef nonnull align 8 dereferenceable(32) %2) unnamed_addr #13 personality ptr @__gxx_personality_v0 {
  %4 = alloca %"class.cv::Mat", align 8
  %5 = alloca %"class.cv::_OutputArray", align 8
  %6 = alloca %"class.cv::Mat", align 8
  call void @llvm.lifetime.start.p0(i64 96, ptr nonnull %6) #21
  store i32 1124024326, ptr %6, align 8, !tbaa !3
  %7 = getelementptr inbounds nuw i8, ptr %6, i64 4
  store i32 2, ptr %7, align 4, !tbaa !16
  %8 = getelementptr inbounds nuw i8, ptr %6, i64 8
  store i32 4, ptr %8, align 8, !tbaa !26
  %9 = getelementptr inbounds nuw i8, ptr %6, i64 12
  store i32 1, ptr %9, align 4, !tbaa !27
  %10 = getelementptr inbounds nuw i8, ptr %6, i64 16
  %11 = getelementptr inbounds nuw i8, ptr %6, i64 64
  call void @llvm.memset.p0.i64(ptr noundef nonnull align 8 dereferenceable(48) %10, i8 0, i64 48, i1 false)
  store ptr %8, ptr %11, align 8, !tbaa !34
  %12 = getelementptr inbounds nuw i8, ptr %6, i64 72
  %13 = getelementptr inbounds nuw i8, ptr %6, i64 80
  store ptr %13, ptr %12, align 8, !tbaa !157
  call void @llvm.memset.p0.i64(ptr noundef nonnull align 8 dereferenceable(16) %13, i8 0, i64 16, i1 false)
  call void @llvm.lifetime.start.p0(i64 96, ptr nonnull %4) #21
  call void @_ZN2cv3MatC1EiiiPvm(ptr noundef nonnull align 8 dereferenceable(96) %4, i32 noundef 4, i32 noundef 1, i32 noundef 6, ptr noundef nonnull align 8 dereferenceable(32) %2, i64 noundef 0)
  call void @llvm.lifetime.start.p0(i64 24, ptr nonnull %5) #21
  %14 = getelementptr inbounds nuw i8, ptr %5, i64 8
  %15 = getelementptr inbounds nuw i8, ptr %5, i64 16
  store i64 0, ptr %15, align 8
  store i32 33619968, ptr %5, align 8, !tbaa !22
  store ptr %6, ptr %14, align 8, !tbaa !25
  invoke void @_ZNK2cv3Mat6copyToERKNS_12_OutputArrayE(ptr noundef nonnull align 8 dereferenceable(96) %4, ptr noundef nonnull align 8 dereferenceable(24) %5)
          to label %_ZN2cv3MatC2IdLi4ELi1EEERKNS_4MatxIT_XT0_EXT1_EEEb.exit unwind label %16

common.resume:                                    ; preds = %19, %16
  %common.resume.op = phi { ptr, i32 } [ %17, %16 ], [ %20, %19 ]
  resume { ptr, i32 } %common.resume.op

16:                                               ; preds = %3
  %17 = landingpad { ptr, i32 }
          cleanup
  call void @llvm.lifetime.end.p0(i64 24, ptr nonnull %5) #21
  call void @_ZN2cv3MatD1Ev(ptr noundef nonnull align 8 dereferenceable(96) %4) #21
  call void @llvm.lifetime.end.p0(i64 96, ptr nonnull %4) #21
  br label %common.resume

_ZN2cv3MatC2IdLi4ELi1EEERKNS_4MatxIT_XT0_EXT1_EEEb.exit: ; preds = %3
  call void @llvm.lifetime.end.p0(i64 24, ptr nonnull %5) #21
  call void @_ZN2cv3MatD1Ev(ptr noundef nonnull align 8 dereferenceable(96) %4) #21
  call void @llvm.lifetime.end.p0(i64 96, ptr nonnull %4) #21
  invoke void @_ZN2cvmiERKNS_3MatES2_(ptr dead_on_unwind nonnull writable sret(%"class.cv::MatExpr") align 8 %0, ptr noundef nonnull align 8 dereferenceable(96) %1, ptr noundef nonnull align 8 dereferenceable(96) %6)
          to label %18 unwind label %19

18:                                               ; preds = %_ZN2cv3MatC2IdLi4ELi1EEERKNS_4MatxIT_XT0_EXT1_EEEb.exit
  call void @_ZN2cv3MatD1Ev(ptr noundef nonnull align 8 dereferenceable(96) %6) #21
  call void @llvm.lifetime.end.p0(i64 96, ptr nonnull %6) #21
  ret void

19:                                               ; preds = %_ZN2cv3MatC2IdLi4ELi1EEERKNS_4MatxIT_XT0_EXT1_EEEb.exit
  %20 = landingpad { ptr, i32 }
          cleanup
  call void @_ZN2cv3MatD1Ev(ptr noundef nonnull align 8 dereferenceable(96) %6) #21
  call void @llvm.lifetime.end.p0(i64 96, ptr nonnull %6) #21
  br label %common.resume
}